; Function Attrs: nounwind uwtable
define internal i64 @async_ctrl(ptr noundef %0, i32 noundef %1, i64 noundef %2, ptr noundef %3) #1 {
  %5 = tail call ptr @BIO_next(ptr noundef %0) #6
  %6 = icmp eq ptr %5, null
  %cond = icmp eq i32 %1, 12
  %or.cond = or i1 %cond, %6
  br i1 %or.cond, label %9, label %7

7:                                                ; preds = %4
  %8 = tail call i64 @BIO_ctrl(ptr noundef nonnull %5, i32 noundef %1, i64 noundef %2, ptr noundef %3) #6
  br label %9

9:                                                ; preds = %7, %4
  %.0 = phi i64 [ 0, %4 ], [ %8, %7 ]
  ret i64 %.0
}